target datalayout = "e-m:e-p270:32:32-p271:32:32-p272:64:64-i64:64-i128:128-f80:128-n8:16:32:64-S128"
target triple = "x86_64-pc-linux-gnu"

%class.ciMetadata = type { %class.ciBaseObject.base, ptr }
%class.ciBaseObject.base = type <{ ptr, i32 }>
%class.ciFlags = type <{ i32, i8, i8, [2 x i8] }>
%"class.Compile::AliasType" = type { i32, ptr, ptr, ptr, i8, i32 }
%class.Type.base = type <{ ptr, ptr, i32 }>
%class.Type = type <{ ptr, ptr, i32, [4 x i8] }>
%class.TypeAryPtr = type <{ %class.TypeOopPtr, ptr, i8, [7 x i8] }>
%class.TypeOopPtr = type { %class.TypePtr.base, ptr, ptr, ptr, i8, i8, i8, i8, i32 }
%class.TypePtr.base = type <{ %class.Type.base, [4 x i8], ptr, i32, i32, i32 }>
%class.TypeAry = type <{ %class.Type.base, [4 x i8], ptr, ptr, i8, [7 x i8] }>
%class.ciField = type { %class.ciFlags, ptr, ptr, ptr, ptr, i32, i8, ptr, ptr, %class.ciConstant }
%class.ciConstant = type { i8, %union.anon.18 }
%union.anon.18 = type { i64 }
%class.ciType = type <{ %class.ciMetadata, i8, [7 x i8] }>

@type2field = external global [20 x i8], align 16

; Function Attrs: mustprogress nounwind uwtable
define linkonce_odr hidden noundef zeroext i8 @_ZNK6ciType10basic_typeEv(ptr noundef nonnull align 8 dereferenceable(25) %0) #1 comdat align 2 {
  %2 = alloca ptr, align 8
  store ptr %0, ptr %2, align 8
  %3 = load ptr, ptr %2, align 8
  %4 = getelementptr inbounds %class.ciType, ptr %3, i32 0, i32 1
  %5 = load i8, ptr %4, align 8
  ret i8 %5
}

; Function Attrs: mustprogress nounwind uwtable
define linkonce_odr hidden noundef zeroext i8 @_ZN7ciField11layout_typeEv(ptr noundef nonnull align 8 dereferenceable(80) %0) #1 comdat align 2 {
  %2 = alloca ptr, align 8
  store ptr %0, ptr %2, align 8
  %3 = load ptr, ptr %2, align 8
  %4 = getelementptr inbounds %class.ciField, ptr %3, i32 0, i32 4
  %5 = load ptr, ptr %4, align 8
  %6 = icmp eq ptr %5, null
  br i1 %6, label %7, label %8

7:                                                ; preds = %1
  br label %12

8:                                                ; preds = %1
  %9 = getelementptr inbounds %class.ciField, ptr %3, i32 0, i32 4
  %10 = load ptr, ptr %9, align 8
  %11 = call noundef zeroext i8 @_ZNK6ciType10basic_typeEv(ptr noundef nonnull align 8 dereferenceable(25) %10)
  br label %12

12:                                               ; preds = %8, %7
  %13 = phi i8 [ 12, %7 ], [ %11, %8 ]
  %14 = zext i8 %13 to i64
  %15 = getelementptr inbounds [20 x i8], ptr @type2field, i64 0, i64 %14
  %16 = load i8, ptr %15, align 1
  ret i8 %16
}

; Function Attrs: mustprogress nounwind uwtable
define linkonce_odr hidden noundef ptr @_ZNK7Compile9AliasType5fieldEv(ptr noundef nonnull align 8 dereferenceable(40) %0) #1 comdat align 2 {
  %2 = alloca ptr, align 8
  store ptr %0, ptr %2, align 8
  %3 = load ptr, ptr %2, align 8
  %4 = getelementptr inbounds %"class.Compile::AliasType", ptr %3, i32 0, i32 2
  %5 = load ptr, ptr %4, align 8
  ret ptr %5
}

; Function Attrs: mustprogress nounwind uwtable
define linkonce_odr hidden noundef ptr @_ZNK4Type13isa_narrowoopEv(ptr noundef nonnull align 8 dereferenceable(20) %0) #1 comdat align 2 {
  %2 = alloca ptr, align 8
  store ptr %0, ptr %2, align 8
  %3 = load ptr, ptr %2, align 8
  %4 = getelementptr inbounds %class.Type, ptr %3, i32 0, i32 2
  %5 = load i32, ptr %4, align 8
  %6 = icmp eq i32 %5, 6
  br i1 %6, label %7, label %8

7:                                                ; preds = %1
  br label %9

8:                                                ; preds = %1
  br label %9

9:                                                ; preds = %8, %7
  %10 = phi ptr [ %3, %7 ], [ null, %8 ]
  ret ptr %10
}

; Function Attrs: mustprogress nounwind uwtable
define linkonce_odr hidden noundef ptr @_ZNK10TypeAryPtr4elemEv(ptr noundef nonnull align 8 dereferenceable(89) %0) #1 comdat align 2 {
  %2 = alloca ptr, align 8
  store ptr %0, ptr %2, align 8
  %3 = load ptr, ptr %2, align 8
  %4 = getelementptr inbounds %class.TypeAryPtr, ptr %3, i32 0, i32 1
  %5 = load ptr, ptr %4, align 8
  %6 = getelementptr inbounds %class.TypeAry, ptr %5, i32 0, i32 2
  %7 = load ptr, ptr %6, align 8
  ret ptr %7
}

; Function Attrs: mustprogress nounwind uwtable
define linkonce_odr hidden noundef ptr @_ZNK4Type9is_aryptrEv(ptr noundef nonnull align 8 dereferenceable(20) %0) #1 comdat align 2 {
  %2 = alloca ptr, align 8
  store ptr %0, ptr %2, align 8
  %3 = load ptr, ptr %2, align 8
  ret ptr %3
}

; Function Attrs: mustprogress nounwind uwtable
define linkonce_odr hidden noundef ptr @_ZNK7Compile9AliasType8adr_typeEv(ptr noundef nonnull align 8 dereferenceable(40) %0) #1 comdat align 2 {
  %2 = alloca ptr, align 8
  store ptr %0, ptr %2, align 8
  %3 = load ptr, ptr %2, align 8
  %4 = getelementptr inbounds %"class.Compile::AliasType", ptr %3, i32 0, i32 1
  %5 = load ptr, ptr %4, align 8
  ret ptr %5
}

; Function Attrs: mustprogress nounwind uwtable
define linkonce_odr hidden noundef ptr @_ZNK7Compile9AliasType7elementEv(ptr noundef nonnull align 8 dereferenceable(40) %0) #1 comdat align 2 {
  %2 = alloca ptr, align 8
  store ptr %0, ptr %2, align 8
  %3 = load ptr, ptr %2, align 8
  %4 = getelementptr inbounds %"class.Compile::AliasType", ptr %3, i32 0, i32 3
  %5 = load ptr, ptr %4, align 8
  ret ptr %5
}

; Function Attrs: mustprogress nounwind uwtable
define hidden noundef zeroext i8 @_ZNK7Compile9AliasType10basic_typeEv(ptr noundef nonnull align 8 dereferenceable(40) %0) #1 align 2 {
  %2 = alloca i8, align 1
  %3 = alloca ptr, align 8
  %4 = alloca ptr, align 8
  store ptr %0, ptr %3, align 8
  %5 = load ptr, ptr %3, align 8
  %6 = call noundef ptr @_ZNK7Compile9AliasType7elementEv(ptr noundef nonnull align 8 dereferenceable(40) %5)
  %7 = icmp ne ptr %6, null
  br i1 %7, label %8, label %21

8:                                                ; preds = %1
  %9 = call noundef ptr @_ZNK7Compile9AliasType8adr_typeEv(ptr noundef nonnull align 8 dereferenceable(40) %5)
  %10 = call noundef ptr @_ZNK4Type9is_aryptrEv(ptr noundef nonnull align 8 dereferenceable(20) %9)
  %11 = call noundef ptr @_ZNK10TypeAryPtr4elemEv(ptr noundef nonnull align 8 dereferenceable(89) %10)
  store ptr %11, ptr %4, align 8
  %12 = load ptr, ptr %4, align 8
  %13 = call noundef ptr @_ZNK4Type13isa_narrowoopEv(ptr noundef nonnull align 8 dereferenceable(20) %12)
  %14 = icmp ne ptr %13, null
  br i1 %14, label %15, label %16

15:                                               ; preds = %8
  br label %19

16:                                               ; preds = %8
  %17 = load ptr, ptr %4, align 8
  %18 = call noundef zeroext i8 @_ZNK4Type24array_element_basic_typeEv(ptr noundef nonnull align 8 dereferenceable(20) %17)
  br label %19

19:                                               ; preds = %16, %15
  %20 = phi i8 [ 12, %15 ], [ %18, %16 ]
  store i8 %20, ptr %2, align 1
  br label %28

21:                                               ; preds = %1
  %22 = call noundef ptr @_ZNK7Compile9AliasType5fieldEv(ptr noundef nonnull align 8 dereferenceable(40) %5)
  %23 = icmp ne ptr %22, null
  br i1 %23, label %24, label %27

24:                                               ; preds = %21
  %25 = call noundef ptr @_ZNK7Compile9AliasType5fieldEv(ptr noundef nonnull align 8 dereferenceable(40) %5)
  %26 = call noundef zeroext i8 @_ZN7ciField11layout_typeEv(ptr noundef nonnull align 8 dereferenceable(80) %25)
  store i8 %26, ptr %2, align 1
  br label %28

27:                                               ; preds = %21
  store i8 99, ptr %2, align 1
  br label %28

28:                                               ; preds = %27, %24, %19
  %29 = load i8, ptr %2, align 1
  ret i8 %29
}