; Function Attrs: mustprogress nounwind uwtable
define hidden noundef zeroext i8 @_ZNK7Compile9AliasType10basic_typeEv(ptr nocapture noundef nonnull readonly align 8 dereferenceable(40) %0) local_unnamed_addr #0 align 2 {
  %2 = getelementptr inbounds i8, ptr %0, i64 24
  %3 = load ptr, ptr %2, align 8
  %.not = icmp eq ptr %3, null
  br i1 %.not, label %16, label %4

4:                                                ; preds = %1
  %5 = getelementptr inbounds i8, ptr %0, i64 8
  %6 = load ptr, ptr %5, align 8
  %7 = getelementptr inbounds i8, ptr %6, i64 80
  %8 = load ptr, ptr %7, align 8
  %9 = getelementptr inbounds i8, ptr %8, i64 24
  %10 = load ptr, ptr %9, align 8
  %11 = getelementptr inbounds i8, ptr %10, i64 16
  %12 = load i32, ptr %11, align 8
  %13 = icmp ne i32 %12, 6
  %.not45 = icmp eq ptr %10, null
  %.not4 = or i1 %.not45, %13
  br i1 %.not4, label %14, label %30

14:                                               ; preds = %4
  %15 = tail call noundef zeroext i8 @_ZNK4Type24array_element_basic_typeEv(ptr noundef nonnull align 8 dereferenceable(20) %10) #17
  br label %30

16:                                               ; preds = %1
  %17 = getelementptr inbounds i8, ptr %0, i64 16
  %18 = load ptr, ptr %17, align 8
  %.not3 = icmp eq ptr %18, null
  br i1 %.not3, label %30, label %19

19:                                               ; preds = %16
  %20 = getelementptr inbounds i8, ptr %18, i64 32
  %21 = load ptr, ptr %20, align 8
  %22 = icmp eq ptr %21, null
  br i1 %22, label %_ZN7ciField11layout_typeEv.exit, label %23

23:                                               ; preds = %19
  %24 = getelementptr inbounds i8, ptr %21, i64 24
  %25 = load i8, ptr %24, align 8
  %26 = zext i8 %25 to i64
  br label %_ZN7ciField11layout_typeEv.exit

_ZN7ciField11layout_typeEv.exit:                  ; preds = %19, %23
  %27 = phi i64 [ %26, %23 ], [ 12, %19 ]
  %28 = getelementptr inbounds [20 x i8], ptr @type2field, i64 0, i64 %27
  %29 = load i8, ptr %28, align 1
  br label %30

30:                                               ; preds = %16, %14, %4, %_ZN7ciField11layout_typeEv.exit
  %.0 = phi i8 [ %29, %_ZN7ciField11layout_typeEv.exit ], [ %15, %14 ], [ 12, %4 ], [ 99, %16 ]
  ret i8 %.0
}